; Function Attrs: mustprogress nounwind uwtable
define hidden noundef ptr @_ZNK6Invoke13declared_typeEv(ptr nocapture noundef nonnull readonly align 8 dereferenceable(144) %0) unnamed_addr #1 align 2 {
  %2 = alloca i8, align 1
  %3 = alloca ptr, align 8
  %4 = getelementptr inbounds i8, ptr %0, i64 96
  %5 = load ptr, ptr %4, align 8
  %6 = load ptr, ptr %5, align 8
  %7 = getelementptr inbounds i8, ptr %6, i64 24
  %8 = load ptr, ptr %7, align 8
  %9 = getelementptr inbounds i8, ptr %5, i64 16
  %10 = load i32, ptr %9, align 8
  call void @llvm.lifetime.start.p0(i64 1, ptr nonnull %2)
  call void @llvm.lifetime.start.p0(i64 8, ptr nonnull %3)
  %11 = call noundef ptr @_ZN8ciMethod17get_method_at_bciEiRbPP11ciSignature(ptr noundef nonnull align 8 dereferenceable(160) %8, i32 noundef %10, ptr noundef nonnull align 1 dereferenceable(1) %2, ptr noundef nonnull %3) #13
  %12 = load ptr, ptr %3, align 8
  call void @llvm.lifetime.end.p0(i64 1, ptr nonnull %2)
  call void @llvm.lifetime.end.p0(i64 8, ptr nonnull %3)
  %13 = getelementptr inbounds i8, ptr %12, i64 40
  %14 = load ptr, ptr %13, align 8
  ret ptr %14
}